; Function Attrs: nounwind uwtable
define dso_local ptr @revision_sources_at_peek(ptr noundef captures(none) %0, ptr noundef readonly captures(none) %1, i32 noundef %2) local_unnamed_addr #2 {
  %4 = getelementptr inbounds nuw i8, ptr %1, i64 64
  %5 = load i32, ptr %4, align 8, !tbaa !20
  %6 = load i32, ptr %0, align 8, !tbaa !11
  %7 = udiv i32 %5, %6
  %8 = urem i32 %5, %6
  %9 = getelementptr inbounds nuw i8, ptr %0, i64 8
  %10 = load i32, ptr %9, align 8, !tbaa !12
  %.not = icmp ugt i32 %10, %7
  br i1 %.not, label %._crit_edge40, label %11

._crit_edge40:                                    ; preds = %3
  %.phi.trans.insert = getelementptr inbounds nuw i8, ptr %0, i64 16
  %.pre = load ptr, ptr %.phi.trans.insert, align 8, !tbaa !13
  br label %22

11:                                               ; preds = %3
  %.not33.not = icmp eq i32 %2, 0
  br i1 %.not33.not, label %.critedge, label %st_mult.exit

st_mult.exit:                                     ; preds = %11
  %12 = add i32 %7, 1
  %13 = zext i32 %12 to i64
  %14 = getelementptr inbounds nuw i8, ptr %0, i64 16
  %15 = load ptr, ptr %14, align 8, !tbaa !13
  %16 = shl nuw nsw i64 %13, 3
  %17 = tail call ptr @xrealloc(ptr noundef %15, i64 noundef %16) #26
  store ptr %17, ptr %14, align 8, !tbaa !13
  %18 = load i32, ptr %9, align 8, !tbaa !12
  %.not3438 = icmp ugt i32 %18, %7
  br i1 %.not3438, label %._crit_edge, label %.lr.ph

.lr.ph:                                           ; preds = %st_mult.exit, %.lr.ph
  %.03039 = phi i32 [ %21, %.lr.ph ], [ %18, %st_mult.exit ]
  %19 = zext i32 %.03039 to i64
  %20 = getelementptr inbounds nuw ptr, ptr %17, i64 %19
  store ptr null, ptr %20, align 8, !tbaa !14
  %21 = add i32 %.03039, 1
  %.not34 = icmp ugt i32 %21, %7
  br i1 %.not34, label %._crit_edge, label %.lr.ph, !llvm.loop !27

._crit_edge:                                      ; preds = %.lr.ph, %st_mult.exit
  store i32 %12, ptr %9, align 8, !tbaa !12
  br label %22

22:                                               ; preds = %._crit_edge40, %._crit_edge
  %23 = phi ptr [ %.pre, %._crit_edge40 ], [ %17, %._crit_edge ]
  %24 = getelementptr inbounds nuw i8, ptr %0, i64 16
  %25 = zext i32 %7 to i64
  %26 = getelementptr inbounds nuw ptr, ptr %23, i64 %25
  %27 = load ptr, ptr %26, align 8, !tbaa !14
  %.not35 = icmp eq ptr %27, null
  br i1 %.not35, label %28, label %39

28:                                               ; preds = %22
  %.not36 = icmp eq i32 %2, 0
  br i1 %.not36, label %.critedge, label %29

29:                                               ; preds = %28
  %30 = load i32, ptr %0, align 8, !tbaa !11
  %31 = zext i32 %30 to i64
  %32 = getelementptr inbounds nuw i8, ptr %0, i64 4
  %33 = load i32, ptr %32, align 4, !tbaa !4
  %34 = zext i32 %33 to i64
  %35 = shl nuw nsw i64 %34, 3
  %36 = tail call ptr @xcalloc(i64 noundef %31, i64 noundef %35) #26
  %37 = load ptr, ptr %24, align 8, !tbaa !13
  %38 = getelementptr inbounds nuw ptr, ptr %37, i64 %25
  store ptr %36, ptr %38, align 8, !tbaa !14
  br label %39

39:                                               ; preds = %29, %22
  %40 = phi ptr [ %36, %29 ], [ %27, %22 ]
  %41 = getelementptr inbounds nuw i8, ptr %0, i64 4
  %42 = load i32, ptr %41, align 4, !tbaa !4
  %43 = mul i32 %42, %8
  %44 = zext i32 %43 to i64
  %45 = getelementptr inbounds nuw ptr, ptr %40, i64 %44
  br label %.critedge

.critedge:                                        ; preds = %11, %28, %39
  %.1 = phi ptr [ %45, %39 ], [ null, %28 ], [ null, %11 ]
  ret ptr %.1
}